; Function Attrs: mustprogress uwtable
define void @_ZN19OpenColorIO_v2_5dev6Config23setStrictParsingEnabledEb(ptr noundef nonnull readonly align 8 captures(none) dereferenceable(8) %0, i1 noundef zeroext %1) local_unnamed_addr #4 align 2 personality ptr @__gxx_personality_v0 {
  %3 = zext i1 %1 to i8
  %4 = load ptr, ptr %0, align 8, !tbaa !34
  %5 = getelementptr inbounds nuw i8, ptr %4, i64 832
  store i8 %3, ptr %5, align 8, !tbaa !200
  %6 = getelementptr inbounds nuw i8, ptr %4, i64 872
  %7 = tail call noundef i32 @pthread_mutex_lock(ptr noundef nonnull align 8 dereferenceable(40) %6) #34
  %.not.i.i = icmp eq i32 %7, 0
  br i1 %.not.i.i, label %_ZNSt10lock_guardISt5mutexEC2ERS0_.exit, label %8

8:                                                ; preds = %2
  tail call void @_ZSt20__throw_system_errori(i32 noundef %7) #35
  unreachable

_ZNSt10lock_guardISt5mutexEC2ERS0_.exit:          ; preds = %2
  %9 = load ptr, ptr %0, align 8, !tbaa !34
  invoke void @_ZN19OpenColorIO_v2_5dev6Config4Impl13resetCacheIDsEv(ptr noundef nonnull align 8 dereferenceable(1120) %9)
          to label %10 unwind label %12

10:                                               ; preds = %_ZNSt10lock_guardISt5mutexEC2ERS0_.exit
  %11 = tail call noundef i32 @pthread_mutex_unlock(ptr noundef nonnull align 8 dereferenceable(40) %6) #34
  ret void

12:                                               ; preds = %_ZNSt10lock_guardISt5mutexEC2ERS0_.exit
  %13 = landingpad { ptr, i32 }
          cleanup
  %14 = tail call noundef i32 @pthread_mutex_unlock(ptr noundef nonnull align 8 dereferenceable(40) %6) #34
  resume { ptr, i32 } %13
}